; Function Attrs: mustprogress uwtable
define noundef zeroext i1 @_ZN17grpc_event_engine12experimental16TracedBufferList12TracedBuffer8FinishedE12gpr_timespec(ptr noundef nonnull readonly align 8 captures(none) dereferenceable(1240) %0, i64 %1, i64 %2) local_unnamed_addr #5 align 2 {
  %.sroa.0.0.copyload = load i64, ptr %0, align 8, !tbaa !8
  %.sroa.2.0..sroa_idx = getelementptr inbounds nuw i8, ptr %0, i64 8
  %.sroa.2.0.copyload = load i64, ptr %.sroa.2.0..sroa_idx, align 8
  %4 = tail call { i64, i64 } @gpr_time_sub(i64 %1, i64 %2, i64 %.sroa.0.0.copyload, i64 %.sroa.2.0.copyload)
  %5 = extractvalue { i64, i64 } %4, 0
  %6 = extractvalue { i64, i64 } %4, 1
  %7 = tail call i32 @gpr_time_to_millis(i64 %5, i64 %6)
  %8 = icmp sgt i32 %7, 10000
  ret i1 %8
}